; ModuleID = '55/1471.c'
source_filename = "55/1471.c"
target datalayout = "e-m:e-p270:32:32-p271:32:32-p272:64:64-i64:64-f80:128-n8:16:32:64-S128"
target triple = "x86_64-pc-linux-gnu"

@__const.main.i2a = private unnamed_addr constant [37 x i8] c"0123456789ABCDEFGHIJKLMNOPQRSTUVWXYZ\00", align 16
@.str = private unnamed_addr constant [7 x i8] c"%d%s%d\00", align 1
@.str.1 = private unnamed_addr constant [3 x i8] c"%c\00", align 1
@.str.2 = private unnamed_addr constant [2 x i8] c"\0A\00", align 1

; Function Attrs: noinline nounwind uwtable
define dso_local i32 @main() #0 {
  %1 = alloca i32, align 4
  %2 = alloca [128 x i32], align 16
  %3 = alloca [37 x i8], align 16
  %4 = alloca [100 x i8], align 16
  %5 = alloca [100 x i8], align 16
  %6 = alloca i32, align 4
  %7 = alloca i32, align 4
  %8 = alloca i32, align 4
  %9 = alloca i32, align 4
  %10 = alloca i64, align 8
  store i32 0, i32* %1, align 4
  %11 = bitcast [128 x i32]* %2 to i8*
  call void @llvm.memset.p0i8.i64(i8* align 16 %11, i8 0, i64 512, i1 false)
  %12 = bitcast [37 x i8]* %3 to i8*
  call void @llvm.memcpy.p0i8.p0i8.i64(i8* align 16 %12, i8* align 16 getelementptr inbounds ([37 x i8], [37 x i8]* @__const.main.i2a, i32 0, i32 0), i64 37, i1 false)
  %13 = bitcast [100 x i8]* %5 to i8*
  call void @llvm.memset.p0i8.i64(i8* align 16 %13, i8 0, i64 100, i1 false)
  %14 = bitcast i8* %13 to [100 x i8]*
  %15 = getelementptr inbounds [100 x i8], [100 x i8]* %14, i32 0, i32 0
  store i8 48, i8* %15, align 16
  store i32 0, i32* %9, align 4
  store i64 0, i64* %10, align 8
  store i32 48, i32* %6, align 4
  br label %16

16:                                               ; preds = %25, %0
  %17 = load i32, i32* %6, align 4
  %18 = icmp sle i32 %17, 57
  br i1 %18, label %19, label %28

19:                                               ; preds = %16
  %20 = load i32, i32* %6, align 4
  %21 = sub nsw i32 %20, 48
  %22 = load i32, i32* %6, align 4
  %23 = sext i32 %22 to i64
  %24 = getelementptr inbounds [128 x i32], [128 x i32]* %2, i64 0, i64 %23
  store i32 %21, i32* %24, align 4
  br label %25

25:                                               ; preds = %19
  %26 = load i32, i32* %6, align 4
  %27 = add nsw i32 %26, 1
  store i32 %27, i32* %6, align 4
  br label %16

28:                                               ; preds = %16
  store i32 65, i32* %6, align 4
  br label %29

29:                                               ; preds = %39, %28
  %30 = load i32, i32* %6, align 4
  %31 = icmp slt i32 %30, 90
  br i1 %31, label %32, label %42

32:                                               ; preds = %29
  %33 = load i32, i32* %6, align 4
  %34 = sub nsw i32 %33, 65
  %35 = add nsw i32 %34, 10
  %36 = load i32, i32* %6, align 4
  %37 = sext i32 %36 to i64
  %38 = getelementptr inbounds [128 x i32], [128 x i32]* %2, i64 0, i64 %37
  store i32 %35, i32* %38, align 4
  br label %39

39:                                               ; preds = %32
  %40 = load i32, i32* %6, align 4
  %41 = add nsw i32 %40, 1
  store i32 %41, i32* %6, align 4
  br label %29

42:                                               ; preds = %29
  store i32 97, i32* %6, align 4
  br label %43

43:                                               ; preds = %53, %42
  %44 = load i32, i32* %6, align 4
  %45 = icmp slt i32 %44, 122
  br i1 %45, label %46, label %56

46:                                               ; preds = %43
  %47 = load i32, i32* %6, align 4
  %48 = sub nsw i32 %47, 97
  %49 = add nsw i32 %48, 10
  %50 = load i32, i32* %6, align 4
  %51 = sext i32 %50 to i64
  %52 = getelementptr inbounds [128 x i32], [128 x i32]* %2, i64 0, i64 %51
  store i32 %49, i32* %52, align 4
  br label %53

53:                                               ; preds = %46
  %54 = load i32, i32* %6, align 4
  %55 = add nsw i32 %54, 1
  store i32 %55, i32* %6, align 4
  br label %43

56:                                               ; preds = %43
  %57 = getelementptr inbounds [100 x i8], [100 x i8]* %4, i64 0, i64 0
  %58 = call i32 (i8*, ...) @__isoc99_scanf(i8* getelementptr inbounds ([7 x i8], [7 x i8]* @.str, i64 0, i64 0), i32* %7, i8* %57, i32* %8)
  store i32 0, i32* %6, align 4
  br label %59

59:                                               ; preds = %80, %56
  %60 = load i32, i32* %6, align 4
  %61 = sext i32 %60 to i64
  %62 = getelementptr inbounds [100 x i8], [100 x i8]* %4, i64 0, i64 %61
  %63 = load i8, i8* %62, align 1
  %64 = sext i8 %63 to i32
  %65 = icmp ne i32 %64, 0
  br i1 %65, label %66, label %83

66:                                               ; preds = %59
  %67 = load i64, i64* %10, align 8
  %68 = load i32, i32* %7, align 4
  %69 = sext i32 %68 to i64
  %70 = mul nsw i64 %67, %69
  %71 = load i32, i32* %6, align 4
  %72 = sext i32 %71 to i64
  %73 = getelementptr inbounds [100 x i8], [100 x i8]* %4, i64 0, i64 %72
  %74 = load i8, i8* %73, align 1
  %75 = sext i8 %74 to i64
  %76 = getelementptr inbounds [128 x i32], [128 x i32]* %2, i64 0, i64 %75
  %77 = load i32, i32* %76, align 4
  %78 = sext i32 %77 to i64
  %79 = add nsw i64 %70, %78
  store i64 %79, i64* %10, align 8
  br label %80

80:                                               ; preds = %66
  %81 = load i32, i32* %6, align 4
  %82 = add nsw i32 %81, 1
  store i32 %82, i32* %6, align 4
  br label %59

83:                                               ; preds = %59
  %84 = load i64, i64* %10, align 8
  %85 = icmp eq i64 %84, 0
  %86 = zext i1 %85 to i64
  %87 = select i1 %85, i32 1, i32 0
  store i32 %87, i32* %9, align 4
  br label %88

88:                                               ; preds = %91, %83
  %89 = load i64, i64* %10, align 8
  %90 = icmp sgt i64 %89, 0
  br i1 %90, label %91, label %106

91:                                               ; preds = %88
  %92 = load i64, i64* %10, align 8
  %93 = load i32, i32* %8, align 4
  %94 = sext i32 %93 to i64
  %95 = srem i64 %92, %94
  %96 = getelementptr inbounds [37 x i8], [37 x i8]* %3, i64 0, i64 %95
  %97 = load i8, i8* %96, align 1
  %98 = load i32, i32* %9, align 4
  %99 = add nsw i32 %98, 1
  store i32 %99, i32* %9, align 4
  %100 = sext i32 %98 to i64
  %101 = getelementptr inbounds [100 x i8], [100 x i8]* %5, i64 0, i64 %100
  store i8 %97, i8* %101, align 1
  %102 = load i32, i32* %8, align 4
  %103 = sext i32 %102 to i64
  %104 = load i64, i64* %10, align 8
  %105 = sdiv i64 %104, %103
  store i64 %105, i64* %10, align 8
  br label %88

106:                                              ; preds = %88
  %107 = load i32, i32* %9, align 4
  %108 = sub nsw i32 %107, 1
  store i32 %108, i32* %6, align 4
  br label %109

109:                                              ; preds = %119, %106
  %110 = load i32, i32* %6, align 4
  %111 = icmp sge i32 %110, 0
  br i1 %111, label %112, label %122

112:                                              ; preds = %109
  %113 = load i32, i32* %6, align 4
  %114 = sext i32 %113 to i64
  %115 = getelementptr inbounds [100 x i8], [100 x i8]* %5, i64 0, i64 %114
  %116 = load i8, i8* %115, align 1
  %117 = sext i8 %116 to i32
  %118 = call i32 (i8*, ...) @printf(i8* getelementptr inbounds ([3 x i8], [3 x i8]* @.str.1, i64 0, i64 0), i32 %117)
  br label %119

119:                                              ; preds = %112
  %120 = load i32, i32* %6, align 4
  %121 = add nsw i32 %120, -1
  store i32 %121, i32* %6, align 4
  br label %109

122:                                              ; preds = %109
  %123 = call i32 (i8*, ...) @printf(i8* getelementptr inbounds ([2 x i8], [2 x i8]* @.str.2, i64 0, i64 0))
  ret i32 0
}

; Function Attrs: argmemonly nounwind willreturn
declare void @llvm.memset.p0i8.i64(i8* nocapture writeonly, i8, i64, i1 immarg) #1

; Function Attrs: argmemonly nounwind willreturn
declare void @llvm.memcpy.p0i8.p0i8.i64(i8* noalias nocapture writeonly, i8* noalias nocapture readonly, i64, i1 immarg) #1

declare dso_local i32 @__isoc99_scanf(i8*, ...) #2

declare dso_local i32 @printf(i8*, ...) #2


!llvm.module.flags = !{!0}
!llvm.ident = !{!1}

!0 = !{i32 1, !"wchar_size", i32 4}
!1 = !{!"clang version 10.0.0-4ubuntu1 "}
